target datalayout = "e-m:e-p270:32:32-p271:32:32-p272:64:64-i64:64-i128:128-f80:128-n8:16:32:64-S128"
target triple = "x86_64-pc-linux-gnu"

%struct._zgfx_context_t = type { [2500000 x i8], i32, i32, i32, [65536 x i8] }
%struct.bitstream_t = type { ptr, i32, i32, i32, i32 }

; Function Attrs: null_pointer_is_valid sspstrong uwtable
define internal zeroext i1 @bitstream_copyraw_advance(ptr noundef %0, ptr noundef %1, i32 noundef %2) #0 {
  %4 = alloca i1, align 1
  %5 = alloca ptr, align 8
  %6 = alloca ptr, align 8
  %7 = alloca i32, align 4
  store ptr %0, ptr %5, align 8
  store ptr %1, ptr %6, align 8
  store i32 %2, ptr %7, align 4
  %8 = load ptr, ptr %5, align 8
  %9 = load ptr, ptr %6, align 8
  %10 = load i32, ptr %7, align 4
  %11 = call zeroext i1 @bitstream_copyraw(ptr noundef %8, ptr noundef %9, i32 noundef %10)
  br i1 %11, label %13, label %12

12:                                               ; preds = %3
  store i1 false, ptr %4, align 1
  br label %25

13:                                               ; preds = %3
  %14 = load i32, ptr %7, align 4
  %15 = load ptr, ptr %5, align 8
  %16 = getelementptr inbounds nuw %struct.bitstream_t, ptr %15, i32 0, i32 1
  %17 = load i32, ptr %16, align 8
  %18 = add i32 %17, %14
  store i32 %18, ptr %16, align 8
  %19 = load i32, ptr %7, align 4
  %20 = mul i32 %19, 8
  %21 = load ptr, ptr %5, align 8
  %22 = getelementptr inbounds nuw %struct.bitstream_t, ptr %21, i32 0, i32 2
  %23 = load i32, ptr %22, align 4
  %24 = sub i32 %23, %20
  store i32 %24, ptr %22, align 4
  store i1 true, ptr %4, align 1
  br label %25

25:                                               ; preds = %13, %12
  %26 = load i1, ptr %4, align 1
  ret i1 %26
}

; Function Attrs: null_pointer_is_valid sspstrong uwtable
define internal zeroext i1 @bitstream_copyraw(ptr noundef %0, ptr noundef %1, i32 noundef %2) #0 {
  %4 = alloca i1, align 1
  %5 = alloca ptr, align 8
  %6 = alloca ptr, align 8
  %7 = alloca i32, align 4
  store ptr %0, ptr %5, align 8
  store ptr %1, ptr %6, align 8
  store i32 %2, ptr %7, align 4
  %8 = load ptr, ptr %5, align 8
  %9 = getelementptr inbounds nuw %struct.bitstream_t, ptr %8, i32 0, i32 0
  %10 = load ptr, ptr %9, align 8
  %11 = load ptr, ptr %5, align 8
  %12 = getelementptr inbounds nuw %struct.bitstream_t, ptr %11, i32 0, i32 1
  %13 = load i32, ptr %12, align 8
  %14 = call i32 @tvb_captured_length_remaining(ptr noundef %10, i32 noundef %13)
  %15 = load i32, ptr %7, align 4
  %16 = icmp slt i32 %14, %15
  br i1 %16, label %17, label %18

17:                                               ; preds = %3
  store i1 false, ptr %4, align 1
  br label %29

18:                                               ; preds = %3
  %19 = load ptr, ptr %5, align 8
  %20 = getelementptr inbounds nuw %struct.bitstream_t, ptr %19, i32 0, i32 0
  %21 = load ptr, ptr %20, align 8
  %22 = load ptr, ptr %6, align 8
  %23 = load ptr, ptr %5, align 8
  %24 = getelementptr inbounds nuw %struct.bitstream_t, ptr %23, i32 0, i32 1
  %25 = load i32, ptr %24, align 8
  %26 = load i32, ptr %7, align 4
  %27 = sext i32 %26 to i64
  %28 = call ptr @tvb_memcpy(ptr noundef %21, ptr noundef %22, i32 noundef %25, i64 noundef %27)
  store i1 true, ptr %4, align 1
  br label %29

29:                                               ; preds = %18, %17
  %30 = load i1, ptr %4, align 1
  ret i1 %30
}

; Function Attrs: null_pointer_is_valid sspstrong uwtable
define internal zeroext i1 @zgfx_write_raw(ptr noundef %0, ptr noundef %1, i32 noundef %2) #0 {
  %4 = alloca i1, align 1
  %5 = alloca ptr, align 8
  %6 = alloca ptr, align 8
  %7 = alloca i32, align 4
  %8 = alloca i32, align 4
  %9 = alloca i32, align 4
  %10 = alloca i32, align 4
  store ptr %0, ptr %5, align 8
  store ptr %1, ptr %6, align 8
  store i32 %2, ptr %7, align 4
  call void @llvm.lifetime.start.p0(i64 4, ptr %8) #8
  call void @llvm.lifetime.start.p0(i64 4, ptr %9) #8
  %11 = load ptr, ptr %5, align 8
  %12 = getelementptr inbounds nuw %struct._zgfx_context_t, ptr %11, i32 0, i32 3
  %13 = load i32, ptr %12, align 4
  %14 = load i32, ptr %7, align 4
  %15 = sub i32 65535, %14
  %16 = icmp ugt i32 %13, %15
  br i1 %16, label %17, label %18

17:                                               ; preds = %3
  store i1 false, ptr %4, align 1
  store i32 1, ptr %10, align 4
  br label %103

18:                                               ; preds = %3
  %19 = load ptr, ptr %6, align 8
  %20 = load ptr, ptr %5, align 8
  %21 = getelementptr inbounds nuw %struct._zgfx_context_t, ptr %20, i32 0, i32 4
  %22 = load ptr, ptr %5, align 8
  %23 = getelementptr inbounds nuw %struct._zgfx_context_t, ptr %22, i32 0, i32 3
  %24 = load i32, ptr %23, align 4
  %25 = zext i32 %24 to i64
  %26 = getelementptr [65536 x i8], ptr %21, i64 0, i64 %25
  %27 = load i32, ptr %7, align 4
  %28 = call zeroext i1 @bitstream_copyraw(ptr noundef %19, ptr noundef %26, i32 noundef %27)
  br i1 %28, label %30, label %29

29:                                               ; preds = %18
  store i1 false, ptr %4, align 1
  store i32 1, ptr %10, align 4
  br label %103

30:                                               ; preds = %18
  %31 = load i32, ptr %7, align 4
  %32 = load ptr, ptr %5, align 8
  %33 = getelementptr inbounds nuw %struct._zgfx_context_t, ptr %32, i32 0, i32 3
  %34 = load i32, ptr %33, align 4
  %35 = add i32 %34, %31
  store i32 %35, ptr %33, align 4
  %36 = load ptr, ptr %5, align 8
  %37 = getelementptr inbounds nuw %struct._zgfx_context_t, ptr %36, i32 0, i32 2
  %38 = load i32, ptr %37, align 4
  %39 = load ptr, ptr %5, align 8
  %40 = getelementptr inbounds nuw %struct._zgfx_context_t, ptr %39, i32 0, i32 1
  %41 = load i32, ptr %40, align 4
  %42 = sub i32 %38, %41
  store i32 %42, ptr %8, align 4
  %43 = load i32, ptr %7, align 4
  store i32 %43, ptr %9, align 4
  %44 = load i32, ptr %8, align 4
  %45 = load i32, ptr %7, align 4
  %46 = icmp ult i32 %44, %45
  br i1 %46, label %47, label %49

47:                                               ; preds = %30
  %48 = load i32, ptr %8, align 4
  store i32 %48, ptr %9, align 4
  br label %49

49:                                               ; preds = %47, %30
  %50 = load ptr, ptr %6, align 8
  %51 = load ptr, ptr %5, align 8
  %52 = getelementptr inbounds nuw %struct._zgfx_context_t, ptr %51, i32 0, i32 0
  %53 = load ptr, ptr %5, align 8
  %54 = getelementptr inbounds nuw %struct._zgfx_context_t, ptr %53, i32 0, i32 1
  %55 = load i32, ptr %54, align 4
  %56 = zext i32 %55 to i64
  %57 = getelementptr [2500000 x i8], ptr %52, i64 0, i64 %56
  %58 = load i32, ptr %9, align 4
  %59 = call zeroext i1 @bitstream_copyraw_advance(ptr noundef %50, ptr noundef %57, i32 noundef %58)
  br i1 %59, label %61, label %60

60:                                               ; preds = %49
  store i1 false, ptr %4, align 1
  store i32 1, ptr %10, align 4
  br label %103

61:                                               ; preds = %49
  %62 = load ptr, ptr %5, align 8
  %63 = getelementptr inbounds nuw %struct._zgfx_context_t, ptr %62, i32 0, i32 1
  %64 = load i32, ptr %63, align 4
  %65 = load i32, ptr %9, align 4
  %66 = add i32 %64, %65
  %67 = load ptr, ptr %5, align 8
  %68 = getelementptr inbounds nuw %struct._zgfx_context_t, ptr %67, i32 0, i32 2
  %69 = load i32, ptr %68, align 4
  %70 = urem i32 %66, %69
  %71 = load ptr, ptr %5, align 8
  %72 = getelementptr inbounds nuw %struct._zgfx_context_t, ptr %71, i32 0, i32 1
  store i32 %70, ptr %72, align 4
  %73 = load i32, ptr %9, align 4
  %74 = load i32, ptr %7, align 4
  %75 = sub i32 %74, %73
  store i32 %75, ptr %7, align 4
  %76 = load i32, ptr %7, align 4
  %77 = icmp ne i32 %76, 0
  br i1 %77, label %78, label %102

78:                                               ; preds = %61
  %79 = load ptr, ptr %6, align 8
  %80 = load ptr, ptr %5, align 8
  %81 = getelementptr inbounds nuw %struct._zgfx_context_t, ptr %80, i32 0, i32 0
  %82 = load ptr, ptr %5, align 8
  %83 = getelementptr inbounds nuw %struct._zgfx_context_t, ptr %82, i32 0, i32 1
  %84 = load i32, ptr %83, align 4
  %85 = zext i32 %84 to i64
  %86 = getelementptr [2500000 x i8], ptr %81, i64 0, i64 %85
  %87 = load i32, ptr %9, align 4
  %88 = call zeroext i1 @bitstream_copyraw_advance(ptr noundef %79, ptr noundef %86, i32 noundef %87)
  br i1 %88, label %90, label %89

89:                                               ; preds = %78
  store i1 false, ptr %4, align 1
  store i32 1, ptr %10, align 4
  br label %103

90:                                               ; preds = %78
  %91 = load ptr, ptr %5, align 8
  %92 = getelementptr inbounds nuw %struct._zgfx_context_t, ptr %91, i32 0, i32 1
  %93 = load i32, ptr %92, align 4
  %94 = load i32, ptr %9, align 4
  %95 = add i32 %93, %94
  %96 = load ptr, ptr %5, align 8
  %97 = getelementptr inbounds nuw %struct._zgfx_context_t, ptr %96, i32 0, i32 2
  %98 = load i32, ptr %97, align 4
  %99 = urem i32 %95, %98
  %100 = load ptr, ptr %5, align 8
  %101 = getelementptr inbounds nuw %struct._zgfx_context_t, ptr %100, i32 0, i32 1
  store i32 %99, ptr %101, align 4
  br label %102

102:                                              ; preds = %90, %61
  store i1 true, ptr %4, align 1
  store i32 1, ptr %10, align 4
  br label %103

103:                                              ; preds = %102, %89, %60, %29, %17
  call void @llvm.lifetime.end.p0(i64 4, ptr %9) #8
  call void @llvm.lifetime.end.p0(i64 4, ptr %8) #8
  %104 = load i1, ptr %4, align 1
  ret i1 %104
}