; Function Attrs: null_pointer_is_valid sspstrong uwtable
define internal fastcc noundef zeroext i1 @zgfx_write_raw(ptr noundef %0, ptr noundef captures(none) %1, i32 noundef %2) unnamed_addr #0 {
  %4 = getelementptr inbounds nuw i8, ptr %0, i64 2500008
  %5 = load i32, ptr %4, align 4
  %6 = sub i32 65535, %2
  %7 = icmp ugt i32 %5, %6
  br i1 %7, label %bitstream_copyraw.exit, label %8

8:                                                ; preds = %3
  %9 = load ptr, ptr %1, align 8
  %10 = getelementptr inbounds nuw i8, ptr %1, i64 8
  %11 = load i32, ptr %10, align 8
  %12 = tail call i32 @tvb_captured_length_remaining(ptr noundef %9, i32 noundef %11)
  %.not38 = icmp slt i32 %12, %2
  br i1 %.not38, label %bitstream_copyraw.exit, label %13

13:                                               ; preds = %8
  %14 = getelementptr inbounds nuw i8, ptr %0, i64 2500012
  %15 = zext i32 %5 to i64
  %16 = getelementptr [65536 x i8], ptr %14, i64 0, i64 %15
  %17 = load ptr, ptr %1, align 8
  %18 = load i32, ptr %10, align 8
  %19 = sext i32 %2 to i64
  %20 = tail call ptr @tvb_memcpy(ptr noundef %17, ptr noundef %16, i32 noundef %18, i64 noundef %19)
  %21 = load i32, ptr %4, align 4
  %22 = add i32 %21, %2
  store i32 %22, ptr %4, align 4
  %23 = getelementptr inbounds nuw i8, ptr %0, i64 2500004
  %24 = load i32, ptr %23, align 4
  %25 = getelementptr inbounds nuw i8, ptr %0, i64 2500000
  %26 = load i32, ptr %25, align 4
  %27 = sub i32 %24, %26
  %spec.select = tail call i32 @llvm.umin.i32(i32 %27, i32 %2)
  %28 = load ptr, ptr %1, align 8
  %29 = load i32, ptr %10, align 8
  %30 = tail call i32 @tvb_captured_length_remaining(ptr noundef %28, i32 noundef %29)
  %.not39 = icmp slt i32 %30, %spec.select
  br i1 %.not39, label %bitstream_copyraw.exit, label %31

31:                                               ; preds = %13
  %32 = zext i32 %26 to i64
  %33 = getelementptr [2500000 x i8], ptr %0, i64 0, i64 %32
  %34 = load ptr, ptr %1, align 8
  %35 = load i32, ptr %10, align 8
  %36 = sext i32 %spec.select to i64
  %37 = tail call ptr @tvb_memcpy(ptr noundef %34, ptr noundef %33, i32 noundef %35, i64 noundef %36)
  %38 = load i32, ptr %10, align 8
  %39 = add i32 %38, %spec.select
  store i32 %39, ptr %10, align 8
  %40 = shl i32 %spec.select, 3
  %41 = getelementptr inbounds nuw i8, ptr %1, i64 12
  %42 = load i32, ptr %41, align 4
  %43 = sub i32 %42, %40
  store i32 %43, ptr %41, align 4
  %44 = load i32, ptr %25, align 4
  %45 = add i32 %44, %spec.select
  %46 = load i32, ptr %23, align 4
  %47 = urem i32 %45, %46
  store i32 %47, ptr %25, align 4
  %.not.not = icmp ugt i32 %2, %27
  br i1 %.not.not, label %48, label %bitstream_copyraw.exit

48:                                               ; preds = %31
  %49 = load ptr, ptr %1, align 8
  %50 = load i32, ptr %10, align 8
  %51 = tail call i32 @tvb_captured_length_remaining(ptr noundef %49, i32 noundef %50)
  %.not = icmp slt i32 %51, %spec.select
  br i1 %.not, label %bitstream_copyraw.exit, label %52

52:                                               ; preds = %48
  %53 = zext i32 %47 to i64
  %54 = getelementptr [2500000 x i8], ptr %0, i64 0, i64 %53
  %55 = load ptr, ptr %1, align 8
  %56 = load i32, ptr %10, align 8
  %57 = tail call ptr @tvb_memcpy(ptr noundef %55, ptr noundef %54, i32 noundef %56, i64 noundef %36)
  %58 = load i32, ptr %10, align 8
  %59 = add i32 %58, %spec.select
  store i32 %59, ptr %10, align 8
  %60 = load i32, ptr %41, align 4
  %61 = sub i32 %60, %40
  store i32 %61, ptr %41, align 4
  %62 = load i32, ptr %25, align 4
  %63 = add i32 %62, %spec.select
  %64 = load i32, ptr %23, align 4
  %65 = urem i32 %63, %64
  store i32 %65, ptr %25, align 4
  br label %bitstream_copyraw.exit

bitstream_copyraw.exit:                           ; preds = %48, %13, %8, %31, %52, %3
  %.033 = phi i1 [ false, %3 ], [ true, %52 ], [ true, %31 ], [ false, %8 ], [ false, %13 ], [ false, %48 ]
  ret i1 %.033
}